; Function Attrs: nofree nounwind uwtable
define dso_local range(i32 0, 2) i32 @readChildInfo(ptr noundef writeonly captures(none) %0, ptr noundef writeonly captures(none) %1, ptr noundef writeonly captures(none) %2, ptr noundef writeonly captures(none) %3, ptr noundef writeonly captures(none) %4) local_unnamed_addr #7 {
  %6 = load i32, ptr getelementptr inbounds nuw (i8, ptr @server, i64 6900), align 4, !tbaa !9
  %7 = icmp eq i32 %6, 40
  br i1 %7, label %8, label %9

8:                                                ; preds = %5
  store i32 0, ptr getelementptr inbounds nuw (i8, ptr @server, i64 6900), align 4, !tbaa !9
  br label %9

9:                                                ; preds = %8, %5
  %10 = phi i32 [ 0, %8 ], [ %6, %5 ]
  %11 = load i32, ptr getelementptr inbounds nuw (i8, ptr @server, i64 6892), align 4, !tbaa !5
  %12 = sext i32 %10 to i64
  %13 = getelementptr inbounds i8, ptr @readChildInfo.buffer, i64 %12
  %14 = sub nsw i64 40, %12
  %15 = tail call i64 @read(i32 noundef %11, ptr noundef nonnull %13, i64 noundef %14) #8
  %16 = trunc i64 %15 to i32
  %17 = icmp sgt i32 %16, 0
  %18 = load i32, ptr getelementptr inbounds nuw (i8, ptr @server, i64 6900), align 4, !tbaa !9
  br i1 %17, label %19, label %thread-pre-split

19:                                               ; preds = %9
  %20 = add nsw i32 %18, %16
  store i32 %20, ptr getelementptr inbounds nuw (i8, ptr @server, i64 6900), align 4, !tbaa !9
  br label %thread-pre-split

thread-pre-split:                                 ; preds = %9, %19
  %21 = phi i32 [ %20, %19 ], [ %18, %9 ]
  %22 = icmp eq i32 %21, 40
  br i1 %22, label %23, label %29

23:                                               ; preds = %thread-pre-split
  %24 = load i32, ptr getelementptr inbounds nuw (i8, ptr @readChildInfo.buffer, i64 32), align 8, !tbaa !43
  store i32 %24, ptr %0, align 4, !tbaa !5
  %25 = load i64, ptr getelementptr inbounds nuw (i8, ptr @readChildInfo.buffer, i64 8), align 8, !tbaa !46
  store i64 %25, ptr %1, align 8, !tbaa !40
  %26 = load i64, ptr getelementptr inbounds nuw (i8, ptr @readChildInfo.buffer, i64 16), align 8, !tbaa !47
  store i64 %26, ptr %2, align 8, !tbaa !40
  %27 = load i64, ptr @readChildInfo.buffer, align 8, !tbaa !45
  store i64 %27, ptr %3, align 8, !tbaa !40
  %28 = load double, ptr getelementptr inbounds nuw (i8, ptr @readChildInfo.buffer, i64 24), align 8, !tbaa !48
  store double %28, ptr %4, align 8, !tbaa !57
  br label %29

29:                                               ; preds = %thread-pre-split, %23
  %.0 = phi i32 [ 1, %23 ], [ 0, %thread-pre-split ]
  ret i32 %.0
}